target datalayout = "e-m:e-p270:32:32-p271:32:32-p272:64:64-i64:64-i128:128-f80:128-n8:16:32:64-S128"
target triple = "x86_64-pc-linux-gnu"

; Function Attrs: nounwind uwtable
define i32 @dt_util_str_occurence(ptr noundef %0, ptr noundef %1) #0 {
  %3 = alloca ptr, align 8
  %4 = alloca ptr, align 8
  %5 = alloca i32, align 4
  %6 = alloca ptr, align 8
  store ptr %0, ptr %3, align 8, !tbaa !6
  store ptr %1, ptr %4, align 8, !tbaa !6
  call void @llvm.lifetime.start.p0(i64 4, ptr %5) #18
  store i32 0, ptr %5, align 4, !tbaa !15
  %7 = load ptr, ptr %3, align 8, !tbaa !6
  %8 = icmp ne ptr %7, null
  br i1 %8, label %9, label %35

9:                                                ; preds = %2
  %10 = load ptr, ptr %4, align 8, !tbaa !6
  %11 = icmp ne ptr %10, null
  br i1 %11, label %12, label %35

12:                                               ; preds = %9
  call void @llvm.lifetime.start.p0(i64 8, ptr %6) #18
  %13 = load ptr, ptr %3, align 8, !tbaa !6
  store ptr %13, ptr %6, align 8, !tbaa !6
  %14 = load ptr, ptr %6, align 8, !tbaa !6
  %15 = load ptr, ptr %6, align 8, !tbaa !6
  %16 = call i64 @strlen(ptr noundef %15) #17
  %17 = load ptr, ptr %4, align 8, !tbaa !6
  %18 = call ptr @g_strstr_len(ptr noundef %14, i64 noundef %16, ptr noundef %17)
  store ptr %18, ptr %6, align 8, !tbaa !6
  %19 = icmp ne ptr %18, null
  br i1 %19, label %20, label %34

20:                                               ; preds = %12
  br label %21

21:                                               ; preds = %24, %20
  %22 = load i32, ptr %5, align 4, !tbaa !15
  %23 = add i32 %22, 1
  store i32 %23, ptr %5, align 4, !tbaa !15
  br label %24

24:                                               ; preds = %21
  %25 = load ptr, ptr %6, align 8, !tbaa !6
  %26 = getelementptr inbounds i8, ptr %25, i64 1
  %27 = load ptr, ptr %6, align 8, !tbaa !6
  %28 = getelementptr inbounds i8, ptr %27, i64 1
  %29 = call i64 @strlen(ptr noundef %28) #17
  %30 = load ptr, ptr %4, align 8, !tbaa !6
  %31 = call ptr @g_strstr_len(ptr noundef %26, i64 noundef %29, ptr noundef %30)
  store ptr %31, ptr %6, align 8, !tbaa !6
  %32 = icmp ne ptr %31, null
  br i1 %32, label %21, label %33

33:                                               ; preds = %24
  br label %34

34:                                               ; preds = %33, %12
  call void @llvm.lifetime.end.p0(i64 8, ptr %6) #18
  br label %35

35:                                               ; preds = %34, %9, %2
  %36 = load i32, ptr %5, align 4, !tbaa !15
  call void @llvm.lifetime.end.p0(i64 4, ptr %5) #18
  ret i32 %36
}

; Function Attrs: nounwind uwtable
define ptr @dt_util_str_replace(ptr noundef %0, ptr noundef %1, ptr noundef %2) #0 {
  %4 = alloca ptr, align 8
  %5 = alloca ptr, align 8
  %6 = alloca ptr, align 8
  %7 = alloca i32, align 4
  %8 = alloca ptr, align 8
  %9 = alloca ptr, align 8
  %10 = alloca ptr, align 8
  %11 = alloca ptr, align 8
  %12 = alloca ptr, align 8
  store ptr %0, ptr %4, align 8, !tbaa !6
  store ptr %1, ptr %5, align 8, !tbaa !6
  store ptr %2, ptr %6, align 8, !tbaa !6
  call void @llvm.lifetime.start.p0(i64 4, ptr %7) #18
  %13 = load ptr, ptr %4, align 8, !tbaa !6
  %14 = load ptr, ptr %5, align 8, !tbaa !6
  %15 = call i32 @dt_util_str_occurence(ptr noundef %13, ptr noundef %14)
  store i32 %15, ptr %7, align 4, !tbaa !15
  call void @llvm.lifetime.start.p0(i64 8, ptr %8) #18
  store ptr null, ptr %8, align 8, !tbaa !6
  %16 = load i32, ptr %7, align 4, !tbaa !15
  %17 = icmp ne i32 %16, 0
  br i1 %17, label %18, label %95

18:                                               ; preds = %3
  %19 = load ptr, ptr %4, align 8, !tbaa !6
  %20 = call i64 @strlen(ptr noundef %19) #17
  %21 = load i32, ptr %7, align 4, !tbaa !15
  %22 = sext i32 %21 to i64
  %23 = load ptr, ptr %6, align 8, !tbaa !6
  %24 = call i64 @strlen(ptr noundef %23) #17
  %25 = mul i64 %22, %24
  %26 = add i64 %20, %25
  %27 = add i64 %26, 1
  %28 = call noalias ptr @g_malloc_n(i64 noundef %27, i64 noundef 1) #20
  store ptr %28, ptr %8, align 8, !tbaa !6
  call void @llvm.lifetime.start.p0(i64 8, ptr %9) #18
  %29 = load ptr, ptr %4, align 8, !tbaa !6
  %30 = load ptr, ptr %4, align 8, !tbaa !6
  %31 = call i64 @strlen(ptr noundef %30) #17
  %32 = getelementptr inbounds nuw i8, ptr %29, i64 %31
  store ptr %32, ptr %9, align 8, !tbaa !6
  call void @llvm.lifetime.start.p0(i64 8, ptr %10) #18
  %33 = load ptr, ptr %4, align 8, !tbaa !6
  store ptr %33, ptr %10, align 8, !tbaa !6
  call void @llvm.lifetime.start.p0(i64 8, ptr %11) #18
  %34 = load ptr, ptr %4, align 8, !tbaa !6
  store ptr %34, ptr %11, align 8, !tbaa !6
  call void @llvm.lifetime.start.p0(i64 8, ptr %12) #18
  %35 = load ptr, ptr %8, align 8, !tbaa !6
  store ptr %35, ptr %12, align 8, !tbaa !6
  %36 = load ptr, ptr %10, align 8, !tbaa !6
  %37 = load ptr, ptr %10, align 8, !tbaa !6
  %38 = call i64 @strlen(ptr noundef %37) #17
  %39 = load ptr, ptr %5, align 8, !tbaa !6
  %40 = call ptr @g_strstr_len(ptr noundef %36, i64 noundef %38, ptr noundef %39)
  store ptr %40, ptr %10, align 8, !tbaa !6
  %41 = icmp ne ptr %40, null
  br i1 %41, label %42, label %80

42:                                               ; preds = %18
  br label %43

43:                                               ; preds = %70, %42
  %44 = load ptr, ptr %12, align 8, !tbaa !6
  %45 = load ptr, ptr %11, align 8, !tbaa !6
  %46 = load ptr, ptr %10, align 8, !tbaa !6
  %47 = load ptr, ptr %11, align 8, !tbaa !6
  %48 = ptrtoint ptr %46 to i64
  %49 = ptrtoint ptr %47 to i64
  %50 = sub i64 %48, %49
  call void @llvm.memcpy.p0.p0.i64(ptr align 1 %44, ptr align 1 %45, i64 %50, i1 false)
  %51 = load ptr, ptr %10, align 8, !tbaa !6
  %52 = load ptr, ptr %11, align 8, !tbaa !6
  %53 = ptrtoint ptr %51 to i64
  %54 = ptrtoint ptr %52 to i64
  %55 = sub i64 %53, %54
  %56 = load ptr, ptr %12, align 8, !tbaa !6
  %57 = getelementptr inbounds i8, ptr %56, i64 %55
  store ptr %57, ptr %12, align 8, !tbaa !6
  %58 = load ptr, ptr %12, align 8, !tbaa !6
  %59 = load ptr, ptr %6, align 8, !tbaa !6
  %60 = load ptr, ptr %6, align 8, !tbaa !6
  %61 = call i64 @strlen(ptr noundef %60) #17
  call void @llvm.memcpy.p0.p0.i64(ptr align 1 %58, ptr align 1 %59, i64 %61, i1 false)
  %62 = load ptr, ptr %6, align 8, !tbaa !6
  %63 = call i64 @strlen(ptr noundef %62) #17
  %64 = load ptr, ptr %12, align 8, !tbaa !6
  %65 = getelementptr inbounds nuw i8, ptr %64, i64 %63
  store ptr %65, ptr %12, align 8, !tbaa !6
  %66 = load ptr, ptr %10, align 8, !tbaa !6
  %67 = load ptr, ptr %5, align 8, !tbaa !6
  %68 = call i64 @strlen(ptr noundef %67) #17
  %69 = getelementptr inbounds nuw i8, ptr %66, i64 %68
  store ptr %69, ptr %11, align 8, !tbaa !6
  br label %70

70:                                               ; preds = %43
  %71 = load ptr, ptr %10, align 8, !tbaa !6
  %72 = getelementptr inbounds i8, ptr %71, i64 1
  %73 = load ptr, ptr %10, align 8, !tbaa !6
  %74 = getelementptr inbounds i8, ptr %73, i64 1
  %75 = call i64 @strlen(ptr noundef %74) #17
  %76 = load ptr, ptr %5, align 8, !tbaa !6
  %77 = call ptr @g_strstr_len(ptr noundef %72, i64 noundef %75, ptr noundef %76)
  store ptr %77, ptr %10, align 8, !tbaa !6
  %78 = icmp ne ptr %77, null
  br i1 %78, label %43, label %79

79:                                               ; preds = %70
  br label %80

80:                                               ; preds = %79, %18
  %81 = load ptr, ptr %12, align 8, !tbaa !6
  %82 = load ptr, ptr %11, align 8, !tbaa !6
  %83 = load ptr, ptr %9, align 8, !tbaa !6
  %84 = load ptr, ptr %11, align 8, !tbaa !6
  %85 = ptrtoint ptr %83 to i64
  %86 = ptrtoint ptr %84 to i64
  %87 = sub i64 %85, %86
  call void @llvm.memcpy.p0.p0.i64(ptr align 1 %81, ptr align 1 %82, i64 %87, i1 false)
  %88 = load ptr, ptr %12, align 8, !tbaa !6
  %89 = load ptr, ptr %9, align 8, !tbaa !6
  %90 = load ptr, ptr %11, align 8, !tbaa !6
  %91 = ptrtoint ptr %89 to i64
  %92 = ptrtoint ptr %90 to i64
  %93 = sub i64 %91, %92
  %94 = getelementptr inbounds i8, ptr %88, i64 %93
  store i8 0, ptr %94, align 1, !tbaa !18
  call void @llvm.lifetime.end.p0(i64 8, ptr %12) #18
  call void @llvm.lifetime.end.p0(i64 8, ptr %11) #18
  call void @llvm.lifetime.end.p0(i64 8, ptr %10) #18
  call void @llvm.lifetime.end.p0(i64 8, ptr %9) #18
  br label %98

95:                                               ; preds = %3
  %96 = load ptr, ptr %4, align 8, !tbaa !6
  %97 = call noalias ptr @g_strdup(ptr noundef %96)
  store ptr %97, ptr %8, align 8, !tbaa !6
  br label %98

98:                                               ; preds = %95, %80
  %99 = load ptr, ptr %8, align 8, !tbaa !6
  call void @llvm.lifetime.end.p0(i64 8, ptr %8) #18
  call void @llvm.lifetime.end.p0(i64 4, ptr %7) #18
  ret ptr %99
}