; Function Attrs: nounwind uwtable
define noalias ptr @dt_util_str_replace(ptr noundef %0, ptr noundef %1, ptr noundef readonly captures(none) %2) local_unnamed_addr #0 {
  %4 = icmp ne ptr %0, null
  %5 = icmp ne ptr %1, null
  %or.cond.i = and i1 %4, %5
  br i1 %or.cond.i, label %6, label %dt_util_str_occurence.exit.thread

6:                                                ; preds = %3
  %7 = tail call i64 @strlen(ptr noundef nonnull dereferenceable(1) %0) #26
  %8 = tail call ptr @g_strstr_len(ptr noundef nonnull %0, i64 noundef %7, ptr noundef nonnull %1) #27
  %.not.i = icmp eq ptr %8, null
  br i1 %.not.i, label %dt_util_str_occurence.exit.thread, label %.preheader.i

.preheader.i:                                     ; preds = %6, %.preheader.i
  %.2.i = phi i32 [ %9, %.preheader.i ], [ 0, %6 ]
  %.0.i = phi ptr [ %12, %.preheader.i ], [ %8, %6 ]
  %9 = add i32 %.2.i, 1
  %10 = getelementptr inbounds nuw i8, ptr %.0.i, i64 1
  %11 = tail call i64 @strlen(ptr noundef nonnull dereferenceable(1) %10) #26
  %12 = tail call ptr @g_strstr_len(ptr noundef nonnull %10, i64 noundef %11, ptr noundef nonnull %1) #27
  %.not15.i = icmp eq ptr %12, null
  br i1 %.not15.i, label %dt_util_str_occurence.exit, label %.preheader.i

dt_util_str_occurence.exit:                       ; preds = %.preheader.i
  %.not = icmp eq i32 %9, 0
  br i1 %.not, label %dt_util_str_occurence.exit.thread, label %13

13:                                               ; preds = %dt_util_str_occurence.exit
  %14 = tail call i64 @strlen(ptr noundef nonnull dereferenceable(1) %0) #26
  %15 = sext i32 %9 to i64
  %16 = tail call i64 @strlen(ptr noundef nonnull dereferenceable(1) %2) #26
  %17 = mul i64 %16, %15
  %18 = add i64 %14, 1
  %19 = add i64 %18, %17
  %20 = tail call noalias ptr @g_malloc_n(i64 noundef %19, i64 noundef 1) #29
  %21 = tail call i64 @strlen(ptr noundef nonnull dereferenceable(1) %0) #26
  %22 = getelementptr inbounds nuw i8, ptr %0, i64 %21
  %23 = tail call ptr @g_strstr_len(ptr noundef nonnull %0, i64 noundef %21, ptr noundef nonnull %1) #27
  %.not45 = icmp eq ptr %23, null
  br i1 %.not45, label %.loopexit, label %.preheader

.preheader:                                       ; preds = %13, %.preheader
  %.041 = phi ptr [ %35, %.preheader ], [ %23, %13 ]
  %.140 = phi ptr [ %32, %.preheader ], [ %0, %13 ]
  %.1 = phi ptr [ %30, %.preheader ], [ %20, %13 ]
  %24 = ptrtoint ptr %.041 to i64
  %25 = ptrtoint ptr %.140 to i64
  %26 = sub i64 %24, %25
  tail call void @llvm.memcpy.p0.p0.i64(ptr align 1 %.1, ptr nonnull align 1 %.140, i64 %26, i1 false)
  %27 = getelementptr inbounds i8, ptr %.1, i64 %26
  %28 = tail call i64 @strlen(ptr noundef nonnull dereferenceable(1) %2) #26
  tail call void @llvm.memcpy.p0.p0.i64(ptr align 1 %27, ptr nonnull align 1 %2, i64 %28, i1 false)
  %29 = tail call i64 @strlen(ptr noundef nonnull dereferenceable(1) %2) #26
  %30 = getelementptr inbounds nuw i8, ptr %27, i64 %29
  %31 = tail call i64 @strlen(ptr noundef nonnull dereferenceable(1) %1) #26
  %32 = getelementptr inbounds nuw i8, ptr %.041, i64 %31
  %33 = getelementptr inbounds nuw i8, ptr %.041, i64 1
  %34 = tail call i64 @strlen(ptr noundef nonnull dereferenceable(1) %33) #26
  %35 = tail call ptr @g_strstr_len(ptr noundef nonnull %33, i64 noundef %34, ptr noundef nonnull %1) #27
  %.not46 = icmp eq ptr %35, null
  br i1 %.not46, label %.loopexit, label %.preheader

.loopexit:                                        ; preds = %.preheader, %13
  %.039 = phi ptr [ %0, %13 ], [ %32, %.preheader ]
  %.0 = phi ptr [ %20, %13 ], [ %30, %.preheader ]
  %36 = ptrtoint ptr %22 to i64
  %37 = ptrtoint ptr %.039 to i64
  %38 = sub i64 %36, %37
  tail call void @llvm.memcpy.p0.p0.i64(ptr align 1 %.0, ptr nonnull align 1 %.039, i64 %38, i1 false)
  %39 = getelementptr inbounds i8, ptr %.0, i64 %38
  store i8 0, ptr %39, align 1, !tbaa !11
  br label %41

dt_util_str_occurence.exit.thread:                ; preds = %6, %3, %dt_util_str_occurence.exit
  %40 = tail call noalias ptr @g_strdup(ptr noundef %0) #27
  br label %41

41:                                               ; preds = %dt_util_str_occurence.exit.thread, %.loopexit
  %.042 = phi ptr [ %20, %.loopexit ], [ %40, %dt_util_str_occurence.exit.thread ]
  ret ptr %.042
}